; Function Attrs: nounwind uwtable
define internal range(i32 -9990, 1) i32 @arkSUNStepperEvolve(ptr noundef %0, double noundef %1, ptr noundef %2, ptr noundef %3) #0 {
  %5 = alloca ptr, align 8
  call void @llvm.lifetime.start.p0(i64 8, ptr nonnull %5) #3
  %6 = call i32 @SUNStepper_GetContent(ptr noundef %0, ptr noundef nonnull %5) #3
  %7 = load ptr, ptr %5, align 8, !tbaa !20
  %8 = call i32 @ARKodeEvolve(ptr noundef %7, double noundef %1, ptr noundef %2, ptr noundef %3, i32 noundef 1) #3
  %9 = getelementptr inbounds nuw i8, ptr %0, i64 24
  store i32 %8, ptr %9, align 8, !tbaa !21
  %10 = icmp slt i32 %8, 0
  %..i = select i1 %10, i32 -9990, i32 0
  call void @llvm.lifetime.end.p0(i64 8, ptr nonnull %5) #3
  ret i32 %..i
}